Certificate:
    Data:
        Version: 3 (0x2)
        Serial Number: 1 (0x1)
        Signature Algorithm: sha1WithRSAEncryption
        Issuer: C=DE, ST=none, L=Berlin, O=OpenVAS Users United, OU=Certification Authority for openvas-VirtualBox, CN=openvas-VirtualBox/emailAddress=ca@openvas-VirtualBox
        Validity
            Not Before: Dec 15 01:51:00 2011 GMT
            Not After : Dec 14 01:51:00 2012 GMT
        Subject: C=DE, L=Berlin, CN=admin
        Subject Public Key Info:
            Public Key Algorithm: rsaEncryption
                Public-Key: (1024 bit)
                Modulus:
                    00:cd:9d:70:ca:cb:a2:97:67:d4:6f:c4:64:67:49:
                    33:ce:76:43:71:e5:01:80:f6:ab:35:f8:a6:71:e0:
                    58:d7:1d:9a:34:f1:de:45:8a:0d:ff:ea:ad:27:34:
                    b2:96:a0:2e:e1:12:1b:d9:b5:fa:ba:89:35:21:d6:
                    2f:89:73:3e:2b:8b:3c:54:ea:6d:c4:97:ba:0a:af:
                    fc:6e:4a:9f:2d:5f:75:aa:23:4b:b5:e0:a0:f5:ec:
                    b0:49:6c:c1:fe:eb:3b:9c:cd:81:64:d4:ba:26:52:
                    ab:4c:6b:83:1e:45:64:6b:b0:69:01:aa:c7:42:b0:
                    f7:2b:94:17:ae:7a:62:ed:af
                Exponent: 65537 (0x10001)
        X509v3 extensions:
            Netscape Cert Type: 
                SSL Client
            X509v3 Key Usage: 
                Digital Signature, Non Repudiation, Key Encipherment
            Netscape Comment: 
                OpenSSL Generated Certificate
            X509v3 Subject Key Identifier: 
                D4:B5:26:65:29:14:95:67:04:55:01:7A:8A:6A:2D:3D:5E:A9:54:B1
            X509v3 Authority Key Identifier: 
                keyid:E8:CA:BC:40:7A:35:40:7A:6A:05:DF:D5:7E:8F:AC:74:DA:AF:C1:56
                DirName:/C=DE/ST=none/L=Berlin/O=OpenVAS Users United/OU=Certification Authority for openvas-VirtualBox/CN=openvas-VirtualBox/emailAddress=ca@openvas-VirtualBox
                serial:A2:16:93:FB:F3:88:29:50

            X509v3 Subject Alternative Name: 
                <EMPTY>

            X509v3 Issuer Alternative Name: 
                <EMPTY>

    Signature Algorithm: sha1WithRSAEncryption
        2c:ea:b5:0b:92:3a:e9:7e:c4:7e:76:7e:3b:b5:20:6a:d5:cf:
        5d:11:40:fe:86:79:bc:92:eb:3d:3a:3f:ba:5c:ba:21:74:65:
        ad:c7:44:b2:ef:c3:af:4c:aa:7f:7d:09:a0:58:fe:65:c6:77:
        c3:59:1d:87:c2:6f:56:88:13:48:47:4a:9f:53:69:c6:36:dd:
        28:b9:31:8c:e7:15:f8:9a:cd:87:d5:b9:9b:87:6b:eb:27:87:
        49:49:bd:c6:e2:ea:50:9f:8f:38:f7:dd:40:67:c2:cd:5c:22:
        46:f0:e7:d9:be:79:d2:a2:93:63:c1:16:66:a7:a6:c4:c2:12:
        27:d4
-----BEGIN CERTIFICATE-----
MIID9jCCA1+gAwIBAgIBATANBgkqhkiG9w0BAQUFADCByDELMAkGA1UEBhMCREUx
DTALBgNVBAgTBG5vbmUxDzANBgNVBAcTBkJlcmxpbjEdMBsGA1UEChMUT3BlblZB
UyBVc2VycyBVbml0ZWQxNzA1BgNVBAsTLkNlcnRpZmljYXRpb24gQXV0aG9yaXR5
IGZvciBvcGVudmFzLVZpcnR1YWxCb3gxGzAZBgNVBAMTEm9wZW52YXMtVmlydHVh
bEJveDEkMCIGCSqGSIb3DQEJARYVY2FAb3BlbnZhcy1WaXJ0dWFsQm94MB4XDTEx
MTIxNTAxNTEwMFoXDTEyMTIxNDAxNTEwMFowLjELMAkGA1UEBhMCREUxDzANBgNV
BAcTBkJlcmxpbjEOMAwGA1UEAxMFYWRtaW4wgZ8wDQYJKoZIhvcNAQEBBQADgY0A
MIGJAoGBAM2dcMrLopdn1G/EZGdJM852Q3HlAYD2qzX4pnHgWNcdmjTx3kWKDf/q
rSc0spagLuESG9m1+rqJNSHWL4lzPiuLPFTqbcSXugqv/G5Kny1fdaojS7XgoPXs
sElswf7rO5zNgWTUuiZSq0xrgx5FZGuwaQGqx0Kw9yuUF656Yu2vAgMBAAGjggGH
MIIBgzARBglghkgBhvhCAQEEBAMCB4AwCwYDVR0PBAQDAgXgMCwGCWCGSAGG+EIB
DQQfFh1PcGVuU1NMIEdlbmVyYXRlZCBDZXJ0aWZpY2F0ZTAdBgNVHQ4EFgQU1LUm
ZSkUlWcEVQF6imotPV6pVLEwgf0GA1UdIwSB9TCB8oAU6Mq8QHo1QHpqBd/Vfo+s
dNqvwVahgc6kgcswgcgxCzAJBgNVBAYTAkRFMQ0wCwYDVQQIEwRub25lMQ8wDQYD
VQQHEwZCZXJsaW4xHTAbBgNVBAoTFE9wZW5WQVMgVXNlcnMgVW5pdGVkMTcwNQYD
VQQLEy5DZXJ0aWZpY2F0aW9uIEF1dGhvcml0eSBmb3Igb3BlbnZhcy1WaXJ0dWFs
Qm94MRswGQYDVQQDExJvcGVudmFzLVZpcnR1YWxCb3gxJDAiBgkqhkiG9w0BCQEW
FWNhQG9wZW52YXMtVmlydHVhbEJveIIJAKIWk/vziClQMAkGA1UdEQQCMAAwCQYD
VR0SBAIwADANBgkqhkiG9w0BAQUFAAOBgQAs6rULkjrpfsR+dn47tSBq1c9dEUD+
hnm8kus9Oj+6XLohdGWtx0Sy78OvTKp/fQmgWP5lxnfDWR2Hwm9WiBNIR0qfU2nG
Nt0ouTGM5xX4ms2H1bmbh2vrJ4dJSb3G4upQn484991AZ8LNXCJG8OfZvnnSopNj
wRZmp6bEwhIn1A==
-----END CERTIFICATE-----
